; Function Attrs: mustprogress nounwind uwtable
define hidden void @_ZN11PhiResolver4moveE7LIR_OprS0_(ptr nocapture noundef nonnull readonly align 8 dereferenceable(32) %0, i64 %1, i64 %2) local_unnamed_addr #3 align 2 {
  %4 = tail call noundef ptr @_ZN11PhiResolver11create_nodeE7LIR_Oprb(ptr noundef nonnull align 8 dereferenceable(32) %0, i64 %1, i1 noundef zeroext true)
  %5 = tail call noundef ptr @_ZN11PhiResolver11create_nodeE7LIR_Oprb(ptr noundef nonnull align 8 dereferenceable(32) %0, i64 %2, i1 noundef zeroext false)
  %6 = getelementptr inbounds i8, ptr %4, i64 8
  %7 = load i32, ptr %6, align 8
  %8 = getelementptr inbounds i8, ptr %4, i64 12
  %9 = load i32, ptr %8, align 4
  %10 = icmp eq i32 %7, %9
  br i1 %10, label %11, label %_ZN11ResolveNode6appendEPS_.exit

11:                                               ; preds = %3
  %12 = add nsw i32 %7, 1
  %13 = icmp sgt i32 %7, -1
  %14 = xor i32 %7, -2147483648
  %15 = and i32 %14, %12
  %16 = icmp eq i32 %15, 0
  %17 = and i1 %13, %16
  %18 = tail call range(i32 0, 33) i32 @llvm.ctlz.i32(i32 %12, i1 true)
  %19 = sub nuw nsw i32 32, %18
  %20 = shl nuw i32 1, %19
  %.0.i.i.i.i.i = select i1 %17, i32 %12, i32 %20
  tail call void @_ZN26GrowableArrayWithAllocatorIP11ResolveNode13GrowableArrayIS1_EE9expand_toEi(ptr noundef nonnull align 8 dereferenceable(16) %6, i32 noundef %.0.i.i.i.i.i)
  %.pre.i.i = load i32, ptr %6, align 8
  br label %_ZN11ResolveNode6appendEPS_.exit

_ZN11ResolveNode6appendEPS_.exit:                 ; preds = %3, %11
  %21 = phi i32 [ %.pre.i.i, %11 ], [ %7, %3 ]
  %22 = add nsw i32 %21, 1
  store i32 %22, ptr %6, align 8
  %23 = getelementptr inbounds i8, ptr %4, i64 16
  %24 = load ptr, ptr %23, align 8
  %25 = sext i32 %21 to i64
  %26 = getelementptr inbounds ptr, ptr %24, i64 %25
  store ptr %5, ptr %26, align 8
  ret void
}